target datalayout = "e-m:e-p270:32:32-p271:32:32-p272:64:64-i64:64-i128:128-f80:128-n8:16:32:64-S128"
target triple = "x86_64-pc-linux-gnu"

%class.Metadata = type { ptr }
%class.DataLayout = type { %union.anon, [1 x i64] }
%union.anon = type { i64 }
%struct.anon = type { i8, i8, i16, i32 }
%class.ProfileData = type { ptr, ptr }
%class.MethodData = type { %class.Metadata, ptr, i32, i32, %class.Mutex, %"class.MethodData::CompilerCounters", i64, i64, i64, i64, i32, %class.InvocationCounter, %class.InvocationCounter, i32, i32, i32, i32, i32, i16, i16, i32, ptr, i32, i32, i32, i32, [1 x i64] }
%class.Mutex = type { ptr, %class.PlatformMonitor, ptr }
%class.PlatformMonitor = type { %class.PlatformMutex, %union.pthread_cond_t }
%class.PlatformMutex = type { %union.pthread_mutex_t }
%union.pthread_mutex_t = type { %struct.__pthread_mutex_s }
%struct.__pthread_mutex_s = type { i32, i32, i32, i32, i32, i16, i16, %struct.__pthread_internal_list }
%struct.__pthread_internal_list = type { ptr, ptr }
%union.pthread_cond_t = type { %struct.__pthread_cond_s }
%struct.__pthread_cond_s = type { %union.__atomic_wide_counter, %union.__atomic_wide_counter, [2 x i32], [2 x i32], i32, i32, [2 x i32] }
%union.__atomic_wide_counter = type { i64 }
%"class.MethodData::CompilerCounters" = type { i32, i32, i32, %union.anon.1 }
%union.anon.1 = type { i64, [56 x i8] }
%class.InvocationCounter = type { i32 }

@g_assert_poison = external global ptr, align 8
@.str.5 = private unnamed_addr constant [38 x i8] c"src/hotspot/share/oops/methodData.cpp\00", align 1
@.str.6 = private unnamed_addr constant [18 x i8] c"unexpected tag %d\00", align 1

; Function Attrs: mustprogress nounwind uwtable
define linkonce_odr hidden noundef i32 @_ZN10DataLayout20header_size_in_cellsEv() #1 comdat align 2 {
  ret i32 1
}

; Function Attrs: mustprogress nounwind uwtable
define linkonce_odr hidden noundef ptr @_ZNK10MethodData27exception_handler_data_baseEv(ptr noundef nonnull align 8 dereferenceable(312) %0) #1 comdat align 2 {
  %2 = alloca ptr, align 8
  store ptr %0, ptr %2, align 8
  %3 = load ptr, ptr %2, align 8
  %4 = getelementptr inbounds %class.MethodData, ptr %3, i32 0, i32 25
  %5 = load i32, ptr %4, align 4
  %6 = call noundef ptr @_ZNK10MethodData14data_layout_atEi(ptr noundef nonnull align 8 dereferenceable(312) %3, i32 noundef %5)
  ret ptr %6
}

; Function Attrs: mustprogress nounwind uwtable
define linkonce_odr hidden noundef i32 @_ZN10DataLayout20header_size_in_bytesEv() #1 comdat align 2 {
  %1 = call noundef i32 @_ZN10DataLayout20header_size_in_cellsEv()
  %2 = mul nsw i32 %1, 8
  ret i32 %2
}

; Function Attrs: mustprogress nounwind uwtable
define linkonce_odr hidden void @_ZN11ProfileDataC2EP10DataLayout(ptr noundef nonnull align 8 dereferenceable(16) %0, ptr noundef %1) unnamed_addr #1 comdat align 2 {
  %3 = alloca ptr, align 8
  %4 = alloca ptr, align 8
  store ptr %0, ptr %3, align 8
  store ptr %1, ptr %4, align 8
  %5 = load ptr, ptr %3, align 8
  store ptr getelementptr inbounds inrange(-16, 152) ({ [21 x ptr] }, ptr @_ZTV11ProfileData, i32 0, i32 0, i32 2), ptr %5, align 8
  %6 = load ptr, ptr %4, align 8
  %7 = getelementptr inbounds %class.ProfileData, ptr %5, i32 0, i32 1
  store ptr %6, ptr %7, align 8
  ret void
}

; Function Attrs: mustprogress nounwind uwtable
define linkonce_odr hidden noundef ptr @_ZNK10MethodData21parameters_data_limitEv(ptr noundef nonnull align 8 dereferenceable(312) %0) #1 comdat align 2 {
  %2 = alloca ptr, align 8
  store ptr %0, ptr %2, align 8
  %3 = load ptr, ptr %2, align 8
  %4 = call noundef ptr @_ZNK10MethodData27exception_handler_data_baseEv(ptr noundef nonnull align 8 dereferenceable(312) %3)
  ret ptr %4
}

; Function Attrs: mustprogress nounwind uwtable
define linkonce_odr hidden noundef ptr @_ZNK10MethodData14data_layout_atEi(ptr noundef nonnull align 8 dereferenceable(312) %0, i32 noundef %1) #1 comdat align 2 {
  %3 = alloca ptr, align 8
  %4 = alloca i32, align 4
  store ptr %0, ptr %3, align 8
  store i32 %1, ptr %4, align 4
  %5 = load ptr, ptr %3, align 8
  %6 = getelementptr inbounds %class.MethodData, ptr %5, i32 0, i32 26
  %7 = getelementptr inbounds [1 x i64], ptr %6, i64 0, i64 0
  %8 = load i32, ptr %4, align 4
  %9 = sext i32 %8 to i64
  %10 = getelementptr inbounds i8, ptr %7, i64 %9
  ret ptr %10
}

; Function Attrs: mustprogress nounwind uwtable
define linkonce_odr hidden noundef i32 @_ZN10DataLayout21compute_size_in_bytesEi(i32 noundef %0) #1 comdat align 2 {
  %2 = alloca i32, align 4
  store i32 %0, ptr %2, align 4
  %3 = call noundef i32 @_ZN10DataLayout20header_size_in_bytesEv()
  %4 = load i32, ptr %2, align 4
  %5 = mul nsw i32 %4, 8
  %6 = add nsw i32 %3, %5
  ret i32 %6
}

; Function Attrs: mustprogress nounwind uwtable
define linkonce_odr hidden noundef i32 @_ZN19SpeculativeTrapData17static_cell_countEv() #1 comdat align 2 {
  ret i32 1
}

; Function Attrs: mustprogress nounwind uwtable
define linkonce_odr hidden noundef i32 @_ZN7BitData17static_cell_countEv() #1 comdat align 2 {
  ret i32 0
}

; Function Attrs: mustprogress nounwind uwtable
define linkonce_odr hidden void @_ZN9ArrayDataC2EP10DataLayout(ptr noundef nonnull align 8 dereferenceable(16) %0, ptr noundef %1) unnamed_addr #1 comdat align 2 {
  %3 = alloca ptr, align 8
  %4 = alloca ptr, align 8
  store ptr %0, ptr %3, align 8
  store ptr %1, ptr %4, align 8
  %5 = load ptr, ptr %3, align 8
  %6 = load ptr, ptr %4, align 8
  call void @_ZN11ProfileDataC2EP10DataLayout(ptr noundef nonnull align 8 dereferenceable(16) %5, ptr noundef %6)
  store ptr getelementptr inbounds inrange(-16, 152) ({ [21 x ptr] }, ptr @_ZTV9ArrayData, i32 0, i32 0, i32 2), ptr %5, align 8
  ret void
}

; Function Attrs: mustprogress nounwind uwtable
define linkonce_odr hidden noundef ptr @_ZNK10MethodData20parameters_data_baseEv(ptr noundef nonnull align 8 dereferenceable(312) %0) #1 comdat align 2 {
  %2 = alloca ptr, align 8
  store ptr %0, ptr %2, align 8
  %3 = load ptr, ptr %2, align 8
  %4 = getelementptr inbounds %class.MethodData, ptr %3, i32 0, i32 24
  %5 = load i32, ptr %4, align 8
  %6 = icmp ne i32 %5, -2
  br i1 %6, label %7, label %11

7:                                                ; preds = %1
  %8 = getelementptr inbounds %class.MethodData, ptr %3, i32 0, i32 24
  %9 = load i32, ptr %8, align 8
  %10 = call noundef ptr @_ZNK10MethodData14data_layout_atEi(ptr noundef nonnull align 8 dereferenceable(312) %3, i32 noundef %9)
  br label %13

11:                                               ; preds = %1
  %12 = call noundef ptr @_ZNK10MethodData21parameters_data_limitEv(ptr noundef nonnull align 8 dereferenceable(312) %3)
  br label %13

13:                                               ; preds = %11, %7
  %14 = phi ptr [ %10, %7 ], [ %12, %11 ]
  ret ptr %14
}

; Function Attrs: mustprogress nounwind uwtable
define linkonce_odr hidden noundef ptr @_ZNK10MethodData19limit_data_positionEv(ptr noundef nonnull align 8 dereferenceable(312) %0) #1 comdat align 2 {
  %2 = alloca ptr, align 8
  store ptr %0, ptr %2, align 8
  %3 = load ptr, ptr %2, align 8
  %4 = getelementptr inbounds %class.MethodData, ptr %3, i32 0, i32 23
  %5 = load i32, ptr %4, align 4
  %6 = call noundef ptr @_ZNK10MethodData14data_layout_atEi(ptr noundef nonnull align 8 dereferenceable(312) %3, i32 noundef %5)
  ret ptr %6
}

; Function Attrs: mustprogress nounwind uwtable
define linkonce_odr hidden void @_ZNK10MethodData23check_extra_data_lockedEv(ptr noundef nonnull align 8 dereferenceable(312) %0) #1 comdat align 2 {
  %2 = alloca ptr, align 8
  store ptr %0, ptr %2, align 8
  ret void
}

; Function Attrs: mustprogress nounwind uwtable
define hidden noundef ptr @_ZN10MethodData10next_extraEP10DataLayout(ptr noundef %0) #1 align 2 {
  %2 = alloca ptr, align 8
  %3 = alloca i32, align 4
  store ptr %0, ptr %2, align 8
  store i32 0, ptr %3, align 4
  %4 = load ptr, ptr %2, align 8
  %5 = call noundef zeroext i8 @_ZN10DataLayout3tagEv(ptr noundef nonnull align 8 dereferenceable(16) %4)
  %6 = zext i8 %5 to i32
  switch i32 %6, label %11 [
    i32 1, label %7
    i32 0, label %7
    i32 13, label %9
  ]

7:                                                ; preds = %1, %1
  %8 = call noundef i32 @_ZN7BitData17static_cell_countEv()
  store i32 %8, ptr %3, align 4
  br label %18

9:                                                ; preds = %1
  %10 = call noundef i32 @_ZN19SpeculativeTrapData17static_cell_countEv()
  store i32 %10, ptr %3, align 4
  br label %18

11:                                               ; preds = %1
  br label %12

12:                                               ; preds = %11
  %13 = load ptr, ptr @g_assert_poison, align 8
  store i8 88, ptr %13, align 1
  %14 = load ptr, ptr %2, align 8
  %15 = call noundef zeroext i8 @_ZN10DataLayout3tagEv(ptr noundef nonnull align 8 dereferenceable(16) %14)
  %16 = zext i8 %15 to i32
  call void (i32, ptr, i32, ptr, ...) @_Z12report_fatal11VMErrorTypePKciS1_z(i32 noundef -536870912, ptr noundef @.str.5, i32 noundef 1414, ptr noundef @.str.6, i32 noundef %16) #12
  unreachable

17:                                               ; No predecessors!
  br label %18

18:                                               ; preds = %17, %9, %7
  %19 = load ptr, ptr %2, align 8
  %20 = load i32, ptr %3, align 4
  %21 = call noundef i32 @_ZN10DataLayout21compute_size_in_bytesEi(i32 noundef %20)
  %22 = sext i32 %21 to i64
  %23 = getelementptr inbounds i8, ptr %19, i64 %22
  ret ptr %23
}

; Function Attrs: mustprogress nounwind uwtable
define linkonce_odr hidden void @_ZN11ArgInfoDataC2EP10DataLayout(ptr noundef nonnull align 8 dereferenceable(16) %0, ptr noundef %1) unnamed_addr #1 comdat align 2 {
  %3 = alloca ptr, align 8
  %4 = alloca ptr, align 8
  store ptr %0, ptr %3, align 8
  store ptr %1, ptr %4, align 8
  %5 = load ptr, ptr %3, align 8
  %6 = load ptr, ptr %4, align 8
  call void @_ZN9ArrayDataC2EP10DataLayout(ptr noundef nonnull align 8 dereferenceable(16) %5, ptr noundef %6)
  store ptr getelementptr inbounds inrange(-16, 152) ({ [21 x ptr] }, ptr @_ZTV11ArgInfoData, i32 0, i32 0, i32 2), ptr %5, align 8
  ret void
}

; Function Attrs: mustprogress nounwind uwtable
define linkonce_odr hidden noundef ptr @_ZN11ResourceObjnwEm(i64 noundef %0) #1 comdat align 2 {
  %2 = alloca i64, align 8
  store i64 %0, ptr %2, align 8
  %3 = load i64, ptr %2, align 8
  %4 = call noundef ptr @_Z23resource_allocate_bytesmN17AllocFailStrategy13AllocFailEnumE(i64 noundef %3, i32 noundef 0)
  ret ptr %4
}

; Function Attrs: mustprogress nounwind uwtable
define linkonce_odr hidden noundef zeroext i8 @_ZN10DataLayout3tagEv(ptr noundef nonnull align 8 dereferenceable(16) %0) #1 comdat align 2 {
  %2 = alloca ptr, align 8
  store ptr %0, ptr %2, align 8
  %3 = load ptr, ptr %2, align 8
  %4 = getelementptr inbounds %class.DataLayout, ptr %3, i32 0, i32 0
  %5 = getelementptr inbounds %struct.anon, ptr %4, i32 0, i32 0
  %6 = load i8, ptr %5, align 8
  ret i8 %6
}

; Function Attrs: mustprogress nounwind uwtable
define linkonce_odr hidden noundef ptr @_ZNK10MethodData15args_data_limitEv(ptr noundef nonnull align 8 dereferenceable(312) %0) #1 comdat align 2 {
  %2 = alloca ptr, align 8
  store ptr %0, ptr %2, align 8
  %3 = load ptr, ptr %2, align 8
  %4 = call noundef ptr @_ZNK10MethodData20parameters_data_baseEv(ptr noundef nonnull align 8 dereferenceable(312) %3)
  ret ptr %4
}

; Function Attrs: mustprogress nounwind uwtable
define linkonce_odr hidden noundef ptr @_ZNK10MethodData15extra_data_baseEv(ptr noundef nonnull align 8 dereferenceable(312) %0) #1 comdat align 2 {
  %2 = alloca ptr, align 8
  store ptr %0, ptr %2, align 8
  %3 = load ptr, ptr %2, align 8
  call void @_ZNK10MethodData23check_extra_data_lockedEv(ptr noundef nonnull align 8 dereferenceable(312) %3)
  %4 = call noundef ptr @_ZNK10MethodData19limit_data_positionEv(ptr noundef nonnull align 8 dereferenceable(312) %3)
  ret ptr %4
}

; Function Attrs: mustprogress nounwind uwtable
define hidden noundef ptr @_ZN10MethodData8arg_infoEv(ptr noundef nonnull align 8 dereferenceable(312) %0) #1 align 2 {
  %2 = alloca ptr, align 8
  %3 = alloca ptr, align 8
  %4 = alloca ptr, align 8
  %5 = alloca ptr, align 8
  store ptr %0, ptr %3, align 8
  %6 = load ptr, ptr %3, align 8
  %7 = call noundef ptr @_ZNK10MethodData15extra_data_baseEv(ptr noundef nonnull align 8 dereferenceable(312) %6)
  store ptr %7, ptr %4, align 8
  %8 = call noundef ptr @_ZNK10MethodData15args_data_limitEv(ptr noundef nonnull align 8 dereferenceable(312) %6)
  store ptr %8, ptr %5, align 8
  br label %9

9:                                                ; preds = %22, %1
  %10 = load ptr, ptr %4, align 8
  %11 = load ptr, ptr %5, align 8
  %12 = icmp ult ptr %10, %11
  br i1 %12, label %13, label %25

13:                                               ; preds = %9
  %14 = load ptr, ptr %4, align 8
  %15 = call noundef zeroext i8 @_ZN10DataLayout3tagEv(ptr noundef nonnull align 8 dereferenceable(16) %14)
  %16 = zext i8 %15 to i32
  %17 = icmp eq i32 %16, 9
  br i1 %17, label %18, label %21

18:                                               ; preds = %13
  %19 = call noundef ptr @_ZN11ResourceObjnwEm(i64 noundef 16)
  %20 = load ptr, ptr %4, align 8
  call void @_ZN11ArgInfoDataC2EP10DataLayout(ptr noundef nonnull align 8 dereferenceable(16) %19, ptr noundef %20)
  store ptr %19, ptr %2, align 8
  br label %26

21:                                               ; preds = %13
  br label %22

22:                                               ; preds = %21
  %23 = load ptr, ptr %4, align 8
  %24 = call noundef ptr @_ZN10MethodData10next_extraEP10DataLayout(ptr noundef %23)
  store ptr %24, ptr %4, align 8
  br label %9, !llvm.loop !34

25:                                               ; preds = %9
  store ptr null, ptr %2, align 8
  br label %26

26:                                               ; preds = %25, %18
  %27 = load ptr, ptr %2, align 8
  ret ptr %27
}