; Function Attrs: mustprogress nounwind uwtable
define hidden noundef ptr @_ZN10MethodData8arg_infoEv(ptr noundef nonnull align 8 dereferenceable(312) %0) local_unnamed_addr #2 align 2 {
  %2 = getelementptr inbounds i8, ptr %0, i64 292
  %3 = load i32, ptr %2, align 4
  %4 = getelementptr inbounds i8, ptr %0, i64 304
  %5 = getelementptr inbounds i8, ptr %0, i64 296
  %6 = load i32, ptr %5, align 8
  %.not.i.i = icmp eq i32 %6, -2
  %7 = getelementptr inbounds i8, ptr %0, i64 300
  %8 = load i32, ptr %7, align 4
  %.v.v.i.i = select i1 %.not.i.i, i32 %8, i32 %6
  %.v.i.i = sext i32 %.v.v.i.i to i64
  %9 = getelementptr inbounds i8, ptr %4, i64 %.v.i.i
  %10 = icmp slt i32 %3, %.v.v.i.i
  br i1 %10, label %.lr.ph.preheader, label %.loopexit

.lr.ph.preheader:                                 ; preds = %1
  %11 = sext i32 %3 to i64
  %12 = getelementptr inbounds i8, ptr %4, i64 %11
  br label %.lr.ph

.lr.ph:                                           ; preds = %.lr.ph.preheader, %_ZN10MethodData10next_extraEP10DataLayout.exit
  %.0710 = phi ptr [ %22, %_ZN10MethodData10next_extraEP10DataLayout.exit ], [ %12, %.lr.ph.preheader ]
  %13 = load i8, ptr %.0710, align 8
  switch i8 %13, label %18 [
    i8 9, label %14
    i8 1, label %_ZN10MethodData10next_extraEP10DataLayout.exit
    i8 0, label %_ZN10MethodData10next_extraEP10DataLayout.exit
    i8 13, label %17
  ]

14:                                               ; preds = %.lr.ph
  %15 = tail call noundef ptr @_Z23resource_allocate_bytesmN17AllocFailStrategy13AllocFailEnumE(i64 noundef 16, i32 noundef 0) #20
  %16 = getelementptr inbounds i8, ptr %15, i64 8
  store ptr %.0710, ptr %16, align 8
  store ptr getelementptr inbounds inrange(-16, 152) (i8, ptr @_ZTV11ArgInfoData, i64 16), ptr %15, align 8
  br label %.loopexit

17:                                               ; preds = %.lr.ph
  br label %_ZN10MethodData10next_extraEP10DataLayout.exit

18:                                               ; preds = %.lr.ph
  %19 = load ptr, ptr @g_assert_poison, align 8
  store i8 88, ptr %19, align 1
  %20 = load i8, ptr %.0710, align 8
  %21 = zext i8 %20 to i32
  tail call void (i32, ptr, i32, ptr, ...) @_Z12report_fatal11VMErrorTypePKciS1_z(i32 noundef -536870912, ptr noundef nonnull @.str.5, i32 noundef 1414, ptr noundef nonnull @.str.6, i32 noundef %21) #21
  unreachable

_ZN10MethodData10next_extraEP10DataLayout.exit:   ; preds = %.lr.ph, %.lr.ph, %17
  %.0.i = phi i64 [ 16, %17 ], [ 8, %.lr.ph ], [ 8, %.lr.ph ]
  %22 = getelementptr inbounds i8, ptr %.0710, i64 %.0.i
  %23 = icmp ult ptr %22, %9
  br i1 %23, label %.lr.ph, label %.loopexit, !llvm.loop !32

.loopexit:                                        ; preds = %_ZN10MethodData10next_extraEP10DataLayout.exit, %1, %14
  %.0 = phi ptr [ %15, %14 ], [ null, %1 ], [ null, %_ZN10MethodData10next_extraEP10DataLayout.exit ]
  ret ptr %.0
}